; Function Attrs: nounwind uwtable
define dso_local i32 @callReplyGetBool(ptr noundef %0) local_unnamed_addr #0 {
  %2 = alloca %struct.ReplyParser, align 8
  %3 = getelementptr inbounds nuw i8, ptr %0, i64 36
  %4 = load i32, ptr %3, align 4, !tbaa !5
  %5 = and i32 %4, 2
  %.not.i = icmp eq i32 %5, 0
  br i1 %.not.i, label %6, label %callReplyParse.exit

6:                                                ; preds = %1
  call void @llvm.lifetime.start.p0(i64 136, ptr nonnull %2) #8
  %7 = getelementptr inbounds nuw i8, ptr %0, i64 16
  %8 = load ptr, ptr %7, align 8, !tbaa !25
  store ptr %8, ptr %2, align 8, !tbaa !26
  %9 = getelementptr inbounds nuw i8, ptr %2, i64 8
  call void @llvm.memcpy.p0.p0.i64(ptr noundef nonnull align 8 dereferenceable(128) %9, ptr noundef nonnull align 8 dereferenceable(128) @DefaultParserCallbacks, i64 128, i1 false), !tbaa.struct !29
  %10 = call i32 @parseReply(ptr noundef nonnull %2, ptr noundef nonnull %0) #8
  %11 = load i32, ptr %3, align 4, !tbaa !5
  %12 = or i32 %11, 2
  store i32 %12, ptr %3, align 4, !tbaa !5
  call void @llvm.lifetime.end.p0(i64 136, ptr nonnull %2) #8
  br label %callReplyParse.exit

callReplyParse.exit:                              ; preds = %1, %6
  %13 = getelementptr inbounds nuw i8, ptr %0, i64 32
  %14 = load i32, ptr %13, align 8, !tbaa !15
  %.not = icmp eq i32 %14, 7
  br i1 %.not, label %15, label %19

15:                                               ; preds = %callReplyParse.exit
  %16 = getelementptr inbounds nuw i8, ptr %0, i64 48
  %17 = load i64, ptr %16, align 8, !tbaa !19
  %18 = trunc i64 %17 to i32
  br label %19

19:                                               ; preds = %callReplyParse.exit, %15
  %.0 = phi i32 [ %18, %15 ], [ -2147483648, %callReplyParse.exit ]
  ret i32 %.0
}